target datalayout = "e-m:e-p270:32:32-p271:32:32-p272:64:64-i64:64-i128:128-f80:128-n8:16:32:64-S128"
target triple = "x86_64-pc-linux-gnu"

%struct.slurm_conf_t = type { i64, ptr, i16, ptr, ptr, ptr, ptr, ptr, i16, ptr, ptr, ptr, ptr, ptr, ptr, ptr, i16, ptr, ptr, ptr, ptr, i16, ptr, ptr, ptr, i64, ptr, ptr, ptr, ptr, i16, ptr, ptr, i16, i32, ptr, i32, ptr, i32, i32, ptr, ptr, i64, i64, ptr, i16, i16, ptr, i32, i32, ptr, i32, ptr, i32, i16, i16, i16, ptr, i16, i16, ptr, ptr, i32, i16, i16, ptr, i32, i16, ptr, ptr, ptr, ptr, i16, ptr, ptr, ptr, ptr, i32, ptr, ptr, ptr, ptr, i16, i16, ptr, i32, i32, i32, i16, i16, ptr, ptr, i16, ptr, ptr, i32, i32, i32, i32, i32, i64, i32, i32, i16, ptr, ptr, i32, ptr, ptr, ptr, i16, i32, ptr, ptr, i16, ptr, ptr, i32, i16, ptr, ptr, ptr, ptr, i32, i32, i16, i16, i32, ptr, i16, ptr, i32, i32, i32, i32, i32, i32, ptr, i16, ptr, ptr, i32, i16, ptr, i32, i16, i16, ptr, ptr, ptr, i16, ptr, ptr, ptr, ptr, i16, i16, ptr, i16, ptr, i16, ptr, i16, ptr, i16, ptr, ptr, ptr, ptr, i16, ptr, ptr, ptr, i32, ptr, i32, ptr, ptr, i16, ptr, ptr, i32, i16, ptr, ptr, i16, i16, ptr, i16, ptr, ptr, ptr, i32, ptr, i16, i16, ptr, ptr, ptr, ptr, ptr, ptr, ptr, ptr, i16, i32, i16, ptr, ptr, ptr, ptr, i32, ptr, ptr, ptr, i16, ptr, ptr, ptr, i16, ptr, i16, ptr, i16, i16, ptr }
%struct.data_s = type { i32, i32, %union.anon }
%union.anon = type { ptr }
%struct.data_list_node_s = type { i32, ptr, ptr, ptr }

@.str = private unnamed_addr constant [7 x i8] c"data.c\00", align 1
@slurm_conf = external global %struct.slurm_conf_t, align 8
@__func__._new_data_list_node = private unnamed_addr constant [20 x i8] c"_new_data_list_node\00", align 1
@.str.76 = private unnamed_addr constant [61 x i8] c"DATA: %s: new dictionary entry data-list-node(0x%lx)[%s]=%pD\00", align 1
@.str.77 = private unnamed_addr constant [51 x i8] c"DATA: %s: new list entry data-list-node(0x%lx)=%pD\00", align 1

; Function Attrs: nounwind uwtable
define internal void @_check_data_list_magic(ptr noundef %0) #0 {
  %2 = alloca ptr, align 8
  store ptr %0, ptr %2, align 8
  ret void
}

; Function Attrs: nounwind uwtable
define internal void @_check_magic(ptr noundef %0) #0 {
  %2 = alloca ptr, align 8
  store ptr %0, ptr %2, align 8
  %3 = load ptr, ptr %2, align 8
  %4 = icmp ne ptr %3, null
  br i1 %4, label %6, label %5

5:                                                ; preds = %1
  br label %29

6:                                                ; preds = %1
  %7 = load i64, ptr getelementptr inbounds nuw (%struct.slurm_conf_t, ptr @slurm_conf, i32 0, i32 42), align 8
  %8 = and i64 %7, 256
  %9 = icmp ne i64 %8, 0
  br i1 %9, label %10, label %29

10:                                               ; preds = %6
  %11 = load ptr, ptr %2, align 8
  %12 = getelementptr inbounds nuw %struct.data_s, ptr %11, i32 0, i32 1
  %13 = load i32, ptr %12, align 4
  %14 = icmp eq i32 %13, 65282
  br i1 %14, label %15, label %19

15:                                               ; preds = %10
  %16 = load ptr, ptr %2, align 8
  %17 = getelementptr inbounds nuw %struct.data_s, ptr %16, i32 0, i32 2
  %18 = load ptr, ptr %17, align 8
  call void @_check_data_list_magic(ptr noundef %18)
  br label %19

19:                                               ; preds = %15, %10
  %20 = load ptr, ptr %2, align 8
  %21 = getelementptr inbounds nuw %struct.data_s, ptr %20, i32 0, i32 1
  %22 = load i32, ptr %21, align 4
  %23 = icmp eq i32 %22, 65283
  br i1 %23, label %24, label %28

24:                                               ; preds = %19
  %25 = load ptr, ptr %2, align 8
  %26 = getelementptr inbounds nuw %struct.data_s, ptr %25, i32 0, i32 2
  %27 = load ptr, ptr %26, align 8
  call void @_check_data_list_magic(ptr noundef %27)
  br label %28

28:                                               ; preds = %24, %19
  br label %29

29:                                               ; preds = %5, %28, %6
  ret void
}

; Function Attrs: nounwind uwtable
define internal ptr @_new_data_list_node(ptr noundef %0, ptr noundef %1) #0 {
  %3 = alloca ptr, align 8
  %4 = alloca ptr, align 8
  %5 = alloca ptr, align 8
  store ptr %0, ptr %3, align 8
  store ptr %1, ptr %4, align 8
  call void @llvm.lifetime.start.p0(i64 8, ptr %5) #10
  %6 = call ptr @slurm_xcalloc(i64 noundef 1, i64 noundef 32, i1 noundef zeroext true, i1 noundef zeroext false, ptr noundef @.str, i32 noundef 317, ptr noundef @__func__._new_data_list_node)
  store ptr %6, ptr %5, align 8
  %7 = load ptr, ptr %5, align 8
  %8 = getelementptr inbounds nuw %struct.data_list_node_s, ptr %7, i32 0, i32 0
  store i32 421656735, ptr %8, align 8
  %9 = load ptr, ptr %3, align 8
  call void @_check_magic(ptr noundef %9)
  %10 = load ptr, ptr %3, align 8
  %11 = load ptr, ptr %5, align 8
  %12 = getelementptr inbounds nuw %struct.data_list_node_s, ptr %11, i32 0, i32 2
  store ptr %10, ptr %12, align 8
  %13 = load ptr, ptr %4, align 8
  %14 = icmp ne ptr %13, null
  br i1 %14, label %15, label %43

15:                                               ; preds = %2
  %16 = load ptr, ptr %4, align 8
  %17 = call ptr @xstrdup(ptr noundef %16)
  %18 = load ptr, ptr %5, align 8
  %19 = getelementptr inbounds nuw %struct.data_list_node_s, ptr %18, i32 0, i32 3
  store ptr %17, ptr %19, align 8
  br label %20

20:                                               ; preds = %15
  %21 = load i64, ptr getelementptr inbounds nuw (%struct.slurm_conf_t, ptr @slurm_conf, i32 0, i32 42), align 8
  %22 = and i64 %21, 256
  %23 = icmp ne i64 %22, 0
  br i1 %23, label %24, label %40

24:                                               ; preds = %20
  br label %25

25:                                               ; preds = %24
  %26 = call i32 @get_log_level()
  %27 = icmp sge i32 %26, 4
  br i1 %27, label %28, label %37

28:                                               ; preds = %25
  %29 = load ptr, ptr %5, align 8
  %30 = ptrtoint ptr %29 to i64
  %31 = load ptr, ptr %5, align 8
  %32 = getelementptr inbounds nuw %struct.data_list_node_s, ptr %31, i32 0, i32 3
  %33 = load ptr, ptr %32, align 8
  %34 = load ptr, ptr %5, align 8
  %35 = getelementptr inbounds nuw %struct.data_list_node_s, ptr %34, i32 0, i32 2
  %36 = load ptr, ptr %35, align 8
  call void (i32, ptr, ...) @log_var(i32 noundef 4, ptr noundef @.str.76, ptr noundef @__func__._new_data_list_node, i64 noundef %30, ptr noundef %33, ptr noundef %36)
  br label %37

37:                                               ; preds = %28, %25
  br label %38

38:                                               ; preds = %37
  br label %39

39:                                               ; preds = %38
  br label %40

40:                                               ; preds = %39, %20
  br label %41

41:                                               ; preds = %40
  br label %42

42:                                               ; preds = %41
  br label %64

43:                                               ; preds = %2
  br label %44

44:                                               ; preds = %43
  %45 = load i64, ptr getelementptr inbounds nuw (%struct.slurm_conf_t, ptr @slurm_conf, i32 0, i32 42), align 8
  %46 = and i64 %45, 256
  %47 = icmp ne i64 %46, 0
  br i1 %47, label %48, label %61

48:                                               ; preds = %44
  br label %49

49:                                               ; preds = %48
  %50 = call i32 @get_log_level()
  %51 = icmp sge i32 %50, 4
  br i1 %51, label %52, label %58

52:                                               ; preds = %49
  %53 = load ptr, ptr %5, align 8
  %54 = ptrtoint ptr %53 to i64
  %55 = load ptr, ptr %5, align 8
  %56 = getelementptr inbounds nuw %struct.data_list_node_s, ptr %55, i32 0, i32 2
  %57 = load ptr, ptr %56, align 8
  call void (i32, ptr, ...) @log_var(i32 noundef 4, ptr noundef @.str.77, ptr noundef @__func__._new_data_list_node, i64 noundef %54, ptr noundef %57)
  br label %58

58:                                               ; preds = %52, %49
  br label %59

59:                                               ; preds = %58
  br label %60

60:                                               ; preds = %59
  br label %61

61:                                               ; preds = %60, %44
  br label %62

62:                                               ; preds = %61
  br label %63

63:                                               ; preds = %62
  br label %64

64:                                               ; preds = %63, %42
  %65 = load ptr, ptr %5, align 8
  call void @llvm.lifetime.end.p0(i64 8, ptr %5) #10
  ret ptr %65
}