; Function Attrs: nounwind uwtable
define internal fastcc noundef ptr @_new_data_list_node(ptr noundef %0, ptr noundef %1) unnamed_addr #0 {
  %3 = tail call ptr @slurm_xcalloc(i64 noundef 1, i64 noundef 32, i1 noundef zeroext true, i1 noundef zeroext false, ptr noundef nonnull @.str, i32 noundef 317, ptr noundef nonnull @__func__._new_data_list_node) #16
  store i32 421656735, ptr %3, align 8
  %4 = getelementptr inbounds nuw i8, ptr %3, i64 16
  store ptr %0, ptr %4, align 8
  %.not = icmp eq ptr %1, null
  br i1 %.not, label %17, label %5

5:                                                ; preds = %2
  %6 = tail call ptr @xstrdup(ptr noundef nonnull %1) #16
  %7 = getelementptr inbounds nuw i8, ptr %3, i64 24
  store ptr %6, ptr %7, align 8
  %8 = load i64, ptr getelementptr inbounds nuw (i8, ptr @slurm_conf, i64 320), align 8
  %9 = and i64 %8, 256
  %.not14 = icmp eq i64 %9, 0
  br i1 %.not14, label %26, label %10

10:                                               ; preds = %5
  %11 = tail call i32 @get_log_level() #16
  %12 = icmp sgt i32 %11, 3
  br i1 %12, label %13, label %26

13:                                               ; preds = %10
  %14 = ptrtoint ptr %3 to i64
  %15 = load ptr, ptr %7, align 8
  %16 = load ptr, ptr %4, align 8
  tail call void (i32, ptr, ...) @log_var(i32 noundef 4, ptr noundef nonnull @.str.76, ptr noundef nonnull @__func__._new_data_list_node, i64 noundef %14, ptr noundef %15, ptr noundef %16) #16
  br label %26

17:                                               ; preds = %2
  %18 = load i64, ptr getelementptr inbounds nuw (i8, ptr @slurm_conf, i64 320), align 8
  %19 = and i64 %18, 256
  %.not13 = icmp eq i64 %19, 0
  br i1 %.not13, label %26, label %20

20:                                               ; preds = %17
  %21 = tail call i32 @get_log_level() #16
  %22 = icmp sgt i32 %21, 3
  br i1 %22, label %23, label %26

23:                                               ; preds = %20
  %24 = ptrtoint ptr %3 to i64
  %25 = load ptr, ptr %4, align 8
  tail call void (i32, ptr, ...) @log_var(i32 noundef 4, ptr noundef nonnull @.str.77, ptr noundef nonnull @__func__._new_data_list_node, i64 noundef %24, ptr noundef %25) #16
  br label %26

26:                                               ; preds = %17, %23, %20, %5, %13, %10
  ret ptr %3
}